; Function Attrs: mustprogress uwtable
define void @_ZN32pxrInternal_v0_24__pxrReserved__22Vt_DefaultValueFactoryINS_7GfVec3dEE6InvokeEv(ptr dead_on_unwind noalias nocapture writable writeonly sret(%"struct.pxrInternal_v0_24__pxrReserved__::Vt_DefaultValueHolder") align 8 %0) local_unnamed_addr #0 align 2 personality ptr @__gxx_personality_v0 {
  %2 = alloca %"class.pxrInternal_v0_24__pxrReserved__::GfVec3d", align 8
  call void @_ZN32pxrInternal_v0_24__pxrReserved__6VtZeroINS_7GfVec3dEEET_v(ptr dead_on_unwind nonnull writable sret(%"class.pxrInternal_v0_24__pxrReserved__::GfVec3d") align 8 %2)
  call void @llvm.experimental.noalias.scope.decl(metadata !129)
  %3 = call noalias noundef nonnull dereferenceable(24) ptr @_Znwm(i64 noundef 24) #23, !noalias !132
  call void @llvm.memcpy.p0.p0.i64(ptr noundef nonnull align 16 dereferenceable(24) %3, ptr noundef nonnull align 8 dereferenceable(24) %2, i64 24, i1 false), !noalias !132
  store ptr %3, ptr %0, align 8, !alias.scope !129
  %4 = getelementptr inbounds nuw i8, ptr %0, i64 8
  store ptr @_ZN32pxrInternal_v0_24__pxrReserved__14TfAnyUniquePtr7_DeleteINS_7GfVec3dEEEvPKv, ptr %4, align 8, !alias.scope !129
  %5 = getelementptr inbounds nuw i8, ptr %0, i64 16
  store ptr @_ZTIN32pxrInternal_v0_24__pxrReserved__7GfVec3dE, ptr %5, align 8, !alias.scope !129
  ret void
}